; ModuleID = '51/903.c'
source_filename = "51/903.c"
target datalayout = "e-m:e-p270:32:32-p271:32:32-p272:64:64-i64:64-f80:128-n8:16:32:64-S128"
target triple = "x86_64-pc-linux-gnu"

@.str = private unnamed_addr constant [5 x i8] c"%d%s\00", align 1
@.str.1 = private unnamed_addr constant [4 x i8] c"NO\0A\00", align 1
@.str.2 = private unnamed_addr constant [4 x i8] c"%d\0A\00", align 1
@.str.3 = private unnamed_addr constant [4 x i8] c"%s\0A\00", align 1

; Function Attrs: noinline nounwind uwtable
define dso_local i32 @main(i32 %0, i8** %1) #0 {
  %3 = alloca i32, align 4
  %4 = alloca i32, align 4
  %5 = alloca i8**, align 8
  %6 = alloca i32, align 4
  %7 = alloca i32, align 4
  %8 = alloca i32, align 4
  %9 = alloca i32, align 4
  %10 = alloca [1000 x i32], align 16
  %11 = alloca i32, align 4
  %12 = alloca [1000 x i8], align 16
  %13 = alloca [1000 x [5 x i8]], align 16
  store i32 0, i32* %3, align 4
  store i32 %0, i32* %4, align 4
  store i8** %1, i8*** %5, align 8
  %14 = bitcast [1000 x i32]* %10 to i8*
  call void @llvm.memset.p0i8.i64(i8* align 16 %14, i8 0, i64 4000, i1 false)
  store i32 0, i32* %11, align 4
  %15 = getelementptr inbounds [1000 x i8], [1000 x i8]* %12, i64 0, i64 0
  %16 = call i32 (i8*, ...) @__isoc99_scanf(i8* getelementptr inbounds ([5 x i8], [5 x i8]* @.str, i64 0, i64 0), i32* %9, i8* %15)
  %17 = getelementptr inbounds [1000 x i8], [1000 x i8]* %12, i64 0, i64 0
  %18 = call i64 @strlen(i8* %17) #5
  %19 = trunc i64 %18 to i32
  store i32 %19, i32* %8, align 4
  %20 = getelementptr inbounds [1000 x [5 x i8]], [1000 x [5 x i8]]* %13, i64 0, i64 0
  %21 = bitcast [5 x i8]* %20 to i8*
  call void @llvm.memset.p0i8.i64(i8* align 16 %21, i8 0, i64 5000, i1 false)
  store i32 0, i32* %6, align 4
  br label %22

22:                                               ; preds = %41, %2
  %23 = load i32, i32* %6, align 4
  %24 = load i32, i32* %8, align 4
  %25 = load i32, i32* %9, align 4
  %26 = sub nsw i32 %24, %25
  %27 = add nsw i32 %26, 1
  %28 = icmp slt i32 %23, %27
  br i1 %28, label %29, label %44

29:                                               ; preds = %22
  %30 = load i32, i32* %6, align 4
  %31 = sext i32 %30 to i64
  %32 = getelementptr inbounds [1000 x [5 x i8]], [1000 x [5 x i8]]* %13, i64 0, i64 %31
  %33 = getelementptr inbounds [5 x i8], [5 x i8]* %32, i64 0, i64 0
  %34 = getelementptr inbounds [1000 x i8], [1000 x i8]* %12, i64 0, i64 0
  %35 = load i32, i32* %6, align 4
  %36 = sext i32 %35 to i64
  %37 = getelementptr inbounds i8, i8* %34, i64 %36
  %38 = load i32, i32* %9, align 4
  %39 = sext i32 %38 to i64
  %40 = call i8* @strncpy(i8* %33, i8* %37, i64 %39) #6
  br label %41

41:                                               ; preds = %29
  %42 = load i32, i32* %6, align 4
  %43 = add nsw i32 %42, 1
  store i32 %43, i32* %6, align 4
  br label %22

44:                                               ; preds = %22
  store i32 0, i32* %6, align 4
  br label %45

45:                                               ; preds = %96, %44
  %46 = load i32, i32* %6, align 4
  %47 = load i32, i32* %8, align 4
  %48 = load i32, i32* %9, align 4
  %49 = sub nsw i32 %47, %48
  %50 = add nsw i32 %49, 1
  %51 = icmp slt i32 %46, %50
  br i1 %51, label %52, label %99

52:                                               ; preds = %45
  %53 = load i32, i32* %6, align 4
  %54 = add nsw i32 %53, 1
  store i32 %54, i32* %7, align 4
  br label %55

55:                                               ; preds = %92, %52
  %56 = load i32, i32* %7, align 4
  %57 = load i32, i32* %8, align 4
  %58 = load i32, i32* %9, align 4
  %59 = sub nsw i32 %57, %58
  %60 = add nsw i32 %59, 1
  %61 = icmp slt i32 %56, %60
  br i1 %61, label %62, label %95

62:                                               ; preds = %55
  %63 = load i32, i32* %6, align 4
  %64 = sext i32 %63 to i64
  %65 = getelementptr inbounds [1000 x [5 x i8]], [1000 x [5 x i8]]* %13, i64 0, i64 %64
  %66 = getelementptr inbounds [5 x i8], [5 x i8]* %65, i64 0, i64 0
  %67 = load i32, i32* %7, align 4
  %68 = sext i32 %67 to i64
  %69 = getelementptr inbounds [1000 x [5 x i8]], [1000 x [5 x i8]]* %13, i64 0, i64 %68
  %70 = getelementptr inbounds [5 x i8], [5 x i8]* %69, i64 0, i64 0
  %71 = call i32 @strcmp(i8* %66, i8* %70) #5
  %72 = icmp eq i32 %71, 0
  br i1 %72, label %73, label %91

73:                                               ; preds = %62
  %74 = load i32, i32* %6, align 4
  %75 = sext i32 %74 to i64
  %76 = getelementptr inbounds [1000 x i32], [1000 x i32]* %10, i64 0, i64 %75
  %77 = load i32, i32* %76, align 4
  %78 = add nsw i32 %77, 1
  store i32 %78, i32* %76, align 4
  %79 = load i32, i32* %6, align 4
  %80 = sext i32 %79 to i64
  %81 = getelementptr inbounds [1000 x i32], [1000 x i32]* %10, i64 0, i64 %80
  %82 = load i32, i32* %81, align 4
  %83 = load i32, i32* %11, align 4
  %84 = icmp sgt i32 %82, %83
  br i1 %84, label %85, label %90

85:                                               ; preds = %73
  %86 = load i32, i32* %6, align 4
  %87 = sext i32 %86 to i64
  %88 = getelementptr inbounds [1000 x i32], [1000 x i32]* %10, i64 0, i64 %87
  %89 = load i32, i32* %88, align 4
  store i32 %89, i32* %11, align 4
  br label %90

90:                                               ; preds = %85, %73
  br label %91

91:                                               ; preds = %90, %62
  br label %92

92:                                               ; preds = %91
  %93 = load i32, i32* %7, align 4
  %94 = add nsw i32 %93, 1
  store i32 %94, i32* %7, align 4
  br label %55

95:                                               ; preds = %55
  br label %96

96:                                               ; preds = %95
  %97 = load i32, i32* %6, align 4
  %98 = add nsw i32 %97, 1
  store i32 %98, i32* %6, align 4
  br label %45

99:                                               ; preds = %45
  %100 = load i32, i32* %11, align 4
  %101 = icmp eq i32 %100, 0
  br i1 %101, label %102, label %104

102:                                              ; preds = %99
  %103 = call i32 (i8*, ...) @printf(i8* getelementptr inbounds ([4 x i8], [4 x i8]* @.str.1, i64 0, i64 0))
  br label %133

104:                                              ; preds = %99
  %105 = load i32, i32* %11, align 4
  %106 = add nsw i32 %105, 1
  %107 = call i32 (i8*, ...) @printf(i8* getelementptr inbounds ([4 x i8], [4 x i8]* @.str.2, i64 0, i64 0), i32 %106)
  store i32 0, i32* %6, align 4
  br label %108

108:                                              ; preds = %129, %104
  %109 = load i32, i32* %6, align 4
  %110 = load i32, i32* %8, align 4
  %111 = load i32, i32* %9, align 4
  %112 = sub nsw i32 %110, %111
  %113 = add nsw i32 %112, 1
  %114 = icmp slt i32 %109, %113
  br i1 %114, label %115, label %132

115:                                              ; preds = %108
  %116 = load i32, i32* %6, align 4
  %117 = sext i32 %116 to i64
  %118 = getelementptr inbounds [1000 x i32], [1000 x i32]* %10, i64 0, i64 %117
  %119 = load i32, i32* %118, align 4
  %120 = load i32, i32* %11, align 4
  %121 = icmp eq i32 %119, %120
  br i1 %121, label %122, label %128

122:                                              ; preds = %115
  %123 = load i32, i32* %6, align 4
  %124 = sext i32 %123 to i64
  %125 = getelementptr inbounds [1000 x [5 x i8]], [1000 x [5 x i8]]* %13, i64 0, i64 %124
  %126 = getelementptr inbounds [5 x i8], [5 x i8]* %125, i64 0, i64 0
  %127 = call i32 (i8*, ...) @printf(i8* getelementptr inbounds ([4 x i8], [4 x i8]* @.str.3, i64 0, i64 0), i8* %126)
  br label %128

128:                                              ; preds = %122, %115
  br label %129

129:                                              ; preds = %128
  %130 = load i32, i32* %6, align 4
  %131 = add nsw i32 %130, 1
  store i32 %131, i32* %6, align 4
  br label %108

132:                                              ; preds = %108
  br label %133

133:                                              ; preds = %132, %102
  ret i32 0
}

; Function Attrs: argmemonly nounwind willreturn
declare void @llvm.memset.p0i8.i64(i8* nocapture writeonly, i8, i64, i1 immarg) #1

declare dso_local i32 @__isoc99_scanf(i8*, ...) #2

; Function Attrs: nounwind readonly
declare dso_local i64 @strlen(i8*) #3

; Function Attrs: nounwind
declare dso_local i8* @strncpy(i8*, i8*, i64) #4

; Function Attrs: nounwind readonly
declare dso_local i32 @strcmp(i8*, i8*) #3

declare dso_local i32 @printf(i8*, ...) #2


!llvm.module.flags = !{!0}
!llvm.ident = !{!1}

!0 = !{i32 1, !"wchar_size", i32 4}
!1 = !{!"clang version 10.0.0-4ubuntu1 "}
